target datalayout = "e-m:e-p270:32:32-p271:32:32-p272:64:64-i64:64-i128:128-f80:128-n8:16:32:64-S128"
target triple = "x86_64-pc-linux-gnu"

%struct.uv__io_s = type { ptr, [2 x ptr], [2 x ptr], i32, i32, i32 }
%struct.uv_stream_s = type { ptr, ptr, i32, ptr, [2 x ptr], %union.anon, ptr, i32, i64, ptr, ptr, ptr, ptr, %struct.uv__io_s, [2 x ptr], [2 x ptr], ptr, i32, i32, ptr }
%union.anon = type { [4 x ptr] }
%struct.uv__stream_queued_fds_s = type { i32, i32, [1 x i32] }

; Function Attrs: nounwind uwtable
define dso_local i32 @uv__stream_open(ptr noundef %0, i32 noundef %1, i32 noundef %2) #0 {
  %4 = alloca i32, align 4
  %5 = alloca ptr, align 8
  %6 = alloca i32, align 4
  %7 = alloca i32, align 4
  store ptr %0, ptr %5, align 8
  store i32 %1, ptr %6, align 4
  store i32 %2, ptr %7, align 4
  %8 = load ptr, ptr %5, align 8
  %9 = getelementptr inbounds %struct.uv_stream_s, ptr %8, i32 0, i32 13
  %10 = getelementptr inbounds %struct.uv__io_s, ptr %9, i32 0, i32 5
  %11 = load i32, ptr %10, align 8
  %12 = icmp eq i32 %11, -1
  br i1 %12, label %21, label %13

13:                                               ; preds = %3
  %14 = load ptr, ptr %5, align 8
  %15 = getelementptr inbounds %struct.uv_stream_s, ptr %14, i32 0, i32 13
  %16 = getelementptr inbounds %struct.uv__io_s, ptr %15, i32 0, i32 5
  %17 = load i32, ptr %16, align 8
  %18 = load i32, ptr %6, align 4
  %19 = icmp eq i32 %17, %18
  br i1 %19, label %21, label %20

20:                                               ; preds = %13
  store i32 -16, ptr %4, align 4
  br label %65

21:                                               ; preds = %13, %3
  %22 = load i32, ptr %7, align 4
  %23 = load ptr, ptr %5, align 8
  %24 = getelementptr inbounds %struct.uv_stream_s, ptr %23, i32 0, i32 7
  %25 = load i32, ptr %24, align 8
  %26 = or i32 %25, %22
  store i32 %26, ptr %24, align 8
  %27 = load ptr, ptr %5, align 8
  %28 = getelementptr inbounds %struct.uv_stream_s, ptr %27, i32 0, i32 2
  %29 = load i32, ptr %28, align 8
  %30 = icmp eq i32 %29, 12
  br i1 %30, label %31, label %60

31:                                               ; preds = %21
  %32 = load ptr, ptr %5, align 8
  %33 = getelementptr inbounds %struct.uv_stream_s, ptr %32, i32 0, i32 7
  %34 = load i32, ptr %33, align 8
  %35 = and i32 %34, 16777216
  %36 = icmp ne i32 %35, 0
  br i1 %36, label %37, label %45

37:                                               ; preds = %31
  %38 = load i32, ptr %6, align 4
  %39 = call i32 @uv__tcp_nodelay(i32 noundef %38, i32 noundef 1)
  %40 = icmp ne i32 %39, 0
  br i1 %40, label %41, label %45

41:                                               ; preds = %37
  %42 = call ptr @__errno_location() #6
  %43 = load i32, ptr %42, align 4
  %44 = sub nsw i32 0, %43
  store i32 %44, ptr %4, align 4
  br label %65

45:                                               ; preds = %37, %31
  %46 = load ptr, ptr %5, align 8
  %47 = getelementptr inbounds %struct.uv_stream_s, ptr %46, i32 0, i32 7
  %48 = load i32, ptr %47, align 8
  %49 = and i32 %48, 33554432
  %50 = icmp ne i32 %49, 0
  br i1 %50, label %51, label %59

51:                                               ; preds = %45
  %52 = load i32, ptr %6, align 4
  %53 = call i32 @uv__tcp_keepalive(i32 noundef %52, i32 noundef 1, i32 noundef 60)
  %54 = icmp ne i32 %53, 0
  br i1 %54, label %55, label %59

55:                                               ; preds = %51
  %56 = call ptr @__errno_location() #6
  %57 = load i32, ptr %56, align 4
  %58 = sub nsw i32 0, %57
  store i32 %58, ptr %4, align 4
  br label %65

59:                                               ; preds = %51, %45
  br label %60

60:                                               ; preds = %59, %21
  %61 = load i32, ptr %6, align 4
  %62 = load ptr, ptr %5, align 8
  %63 = getelementptr inbounds %struct.uv_stream_s, ptr %62, i32 0, i32 13
  %64 = getelementptr inbounds %struct.uv__io_s, ptr %63, i32 0, i32 5
  store i32 %61, ptr %64, align 8
  store i32 0, ptr %4, align 4
  br label %65

65:                                               ; preds = %60, %55, %41, %20
  %66 = load i32, ptr %4, align 4
  ret i32 %66
}

; Function Attrs: nounwind uwtable
define dso_local i32 @uv_accept(ptr noundef %0, ptr noundef %1) #0 {
  %3 = alloca i32, align 4
  %4 = alloca ptr, align 8
  %5 = alloca ptr, align 8
  %6 = alloca i32, align 4
  %7 = alloca ptr, align 8
  store ptr %0, ptr %4, align 8
  store ptr %1, ptr %5, align 8
  %8 = load ptr, ptr %4, align 8
  %9 = getelementptr inbounds %struct.uv_stream_s, ptr %8, i32 0, i32 18
  %10 = load i32, ptr %9, align 4
  %11 = icmp eq i32 %10, -1
  br i1 %11, label %12, label %13

12:                                               ; preds = %2
  store i32 -11, ptr %3, align 4
  br label %103

13:                                               ; preds = %2
  %14 = load ptr, ptr %5, align 8
  %15 = getelementptr inbounds %struct.uv_stream_s, ptr %14, i32 0, i32 2
  %16 = load i32, ptr %15, align 8
  switch i32 %16, label %45 [
    i32 7, label %17
    i32 12, label %17
    i32 15, label %31
  ]

17:                                               ; preds = %13, %13
  %18 = load ptr, ptr %5, align 8
  %19 = load ptr, ptr %4, align 8
  %20 = getelementptr inbounds %struct.uv_stream_s, ptr %19, i32 0, i32 18
  %21 = load i32, ptr %20, align 4
  %22 = call i32 @uv__stream_open(ptr noundef %18, i32 noundef %21, i32 noundef 49152)
  store i32 %22, ptr %6, align 4
  %23 = load i32, ptr %6, align 4
  %24 = icmp ne i32 %23, 0
  br i1 %24, label %25, label %30

25:                                               ; preds = %17
  %26 = load ptr, ptr %4, align 8
  %27 = getelementptr inbounds %struct.uv_stream_s, ptr %26, i32 0, i32 18
  %28 = load i32, ptr %27, align 4
  %29 = call i32 @uv__close(i32 noundef %28)
  br label %51

30:                                               ; preds = %17
  br label %46

31:                                               ; preds = %13
  %32 = load ptr, ptr %5, align 8
  %33 = load ptr, ptr %4, align 8
  %34 = getelementptr inbounds %struct.uv_stream_s, ptr %33, i32 0, i32 18
  %35 = load i32, ptr %34, align 4
  %36 = call i32 @uv_udp_open(ptr noundef %32, i32 noundef %35)
  store i32 %36, ptr %6, align 4
  %37 = load i32, ptr %6, align 4
  %38 = icmp ne i32 %37, 0
  br i1 %38, label %39, label %44

39:                                               ; preds = %31
  %40 = load ptr, ptr %4, align 8
  %41 = getelementptr inbounds %struct.uv_stream_s, ptr %40, i32 0, i32 18
  %42 = load i32, ptr %41, align 4
  %43 = call i32 @uv__close(i32 noundef %42)
  br label %51

44:                                               ; preds = %31
  br label %46

45:                                               ; preds = %13
  store i32 -22, ptr %3, align 4
  br label %103

46:                                               ; preds = %44, %30
  %47 = load ptr, ptr %5, align 8
  %48 = getelementptr inbounds %struct.uv_stream_s, ptr %47, i32 0, i32 7
  %49 = load i32, ptr %48, align 8
  %50 = or i32 %49, 8192
  store i32 %50, ptr %48, align 8
  br label %51

51:                                               ; preds = %46, %39, %25
  %52 = load ptr, ptr %4, align 8
  %53 = getelementptr inbounds %struct.uv_stream_s, ptr %52, i32 0, i32 19
  %54 = load ptr, ptr %53, align 8
  %55 = icmp ne ptr %54, null
  br i1 %55, label %56, label %89

56:                                               ; preds = %51
  %57 = load ptr, ptr %4, align 8
  %58 = getelementptr inbounds %struct.uv_stream_s, ptr %57, i32 0, i32 19
  %59 = load ptr, ptr %58, align 8
  store ptr %59, ptr %7, align 8
  %60 = load ptr, ptr %7, align 8
  %61 = getelementptr inbounds %struct.uv__stream_queued_fds_s, ptr %60, i32 0, i32 2
  %62 = getelementptr inbounds [1 x i32], ptr %61, i64 0, i64 0
  %63 = load i32, ptr %62, align 4
  %64 = load ptr, ptr %4, align 8
  %65 = getelementptr inbounds %struct.uv_stream_s, ptr %64, i32 0, i32 18
  store i32 %63, ptr %65, align 4
  %66 = load ptr, ptr %7, align 8
  %67 = getelementptr inbounds %struct.uv__stream_queued_fds_s, ptr %66, i32 0, i32 1
  %68 = load i32, ptr %67, align 4
  %69 = add i32 %68, -1
  store i32 %69, ptr %67, align 4
  %70 = icmp eq i32 %69, 0
  br i1 %70, label %71, label %75

71:                                               ; preds = %56
  %72 = load ptr, ptr %7, align 8
  call void @uv__free(ptr noundef %72)
  %73 = load ptr, ptr %4, align 8
  %74 = getelementptr inbounds %struct.uv_stream_s, ptr %73, i32 0, i32 19
  store ptr null, ptr %74, align 8
  br label %88

75:                                               ; preds = %56
  %76 = load ptr, ptr %7, align 8
  %77 = getelementptr inbounds %struct.uv__stream_queued_fds_s, ptr %76, i32 0, i32 2
  %78 = getelementptr inbounds [1 x i32], ptr %77, i64 0, i64 0
  %79 = load ptr, ptr %7, align 8
  %80 = getelementptr inbounds %struct.uv__stream_queued_fds_s, ptr %79, i32 0, i32 2
  %81 = getelementptr inbounds [1 x i32], ptr %80, i64 0, i64 0
  %82 = getelementptr inbounds i32, ptr %81, i64 1
  %83 = load ptr, ptr %7, align 8
  %84 = getelementptr inbounds %struct.uv__stream_queued_fds_s, ptr %83, i32 0, i32 1
  %85 = load i32, ptr %84, align 4
  %86 = zext i32 %85 to i64
  %87 = mul i64 %86, 4
  call void @llvm.memmove.p0.p0.i64(ptr align 4 %78, ptr align 4 %82, i64 %87, i1 false)
  br label %88

88:                                               ; preds = %75, %71
  br label %101

89:                                               ; preds = %51
  %90 = load ptr, ptr %4, align 8
  %91 = getelementptr inbounds %struct.uv_stream_s, ptr %90, i32 0, i32 18
  store i32 -1, ptr %91, align 4
  %92 = load i32, ptr %6, align 4
  %93 = icmp eq i32 %92, 0
  br i1 %93, label %94, label %100

94:                                               ; preds = %89
  %95 = load ptr, ptr %4, align 8
  %96 = getelementptr inbounds %struct.uv_stream_s, ptr %95, i32 0, i32 1
  %97 = load ptr, ptr %96, align 8
  %98 = load ptr, ptr %4, align 8
  %99 = getelementptr inbounds %struct.uv_stream_s, ptr %98, i32 0, i32 13
  call void @uv__io_start(ptr noundef %97, ptr noundef %99, i32 noundef 1)
  br label %100

100:                                              ; preds = %94, %89
  br label %101

101:                                              ; preds = %100, %88
  %102 = load i32, ptr %6, align 4
  store i32 %102, ptr %3, align 4
  br label %103

103:                                              ; preds = %101, %45, %12
  %104 = load i32, ptr %3, align 4
  ret i32 %104
}